Certificate:
    Data:
        Version: 3 (0x2)
        Serial Number: 0 (0x0)
        Signature Algorithm: sha256WithRSAEncryption
        Issuer: O=Apache Software Foundation, OU=HttpComponents Project, CN=Test CA/emailAddress=dev@hc.apache.org
        Validity
            Not Before: Oct 20 19:14:02 2024 GMT
            Not After : Sep 26 19:14:02 2124 GMT
        Subject: O=Apache Software Foundation, OU=HttpComponents Project, CN=localhost/emailAddress=dev@hc.apache.org
        Subject Public Key Info:
            Public Key Algorithm: rsaEncryption
                Public-Key: (2048 bit)
                Modulus:
                    00:9d:12:0f:d0:8a:7e:0a:e4:76:b8:08:af:3f:5f:
                    0f:b4:4c:70:24:22:4e:8f:8f:55:ec:ae:31:6c:e2:
                    05:68:df:c5:c0:4d:e9:a5:ed:d9:4e:71:ed:e7:3c:
                    51:ac:0a:fe:21:96:7c:0c:7b:2f:fa:6f:4f:73:69:
                    38:a0:25:a7:4c:d0:69:fc:a2:8d:94:cb:4f:9e:c7:
                    1f:a3:b2:5b:94:5f:20:3c:61:4d:73:a6:9c:a4:7c:
                    72:25:26:ee:a6:d0:d8:f0:49:e7:b3:e0:f5:4d:de:
                    6e:54:80:b9:54:8c:37:9d:d2:c0:ac:8b:43:03:8d:
                    9c:c9:ac:91:f9:31:4f:6d:e9:2d:d5:de:b9:c4:34:
                    de:67:3d:1a:4e:25:43:5e:ee:8e:01:67:d6:b2:4a:
                    49:53:f9:d3:0c:93:5d:a9:1f:52:f7:23:93:1d:73:
                    3a:d4:e1:dd:2b:a2:d1:65:b1:ef:69:12:1a:fc:6b:
                    24:7c:96:6b:d2:27:21:4e:38:04:af:e4:d1:f6:4e:
                    b2:8a:a4:59:b6:c8:c5:21:d5:c0:d6:d8:7e:58:b2:
                    4e:3a:9e:6f:81:8a:1a:0e:0e:61:69:15:cb:7a:19:
                    1a:37:62:3b:96:b3:3b:20:11:b7:1e:a6:63:39:2b:
                    0c:c2:2b:77:7b:0d:21:ef:42:26:71:ce:76:49:cb:
                    68:33
                Exponent: 65537 (0x10001)
        X509v3 extensions:
            X509v3 Basic Constraints: 
                CA:FALSE
            Netscape Comment: 
                OpenSSL Generated Certificate
            X509v3 Subject Key Identifier: 
                38:19:4F:BF:C1:71:41:FE:78:91:B0:09:39:8B:AD:D7:05:B9:D9:82
            X509v3 Authority Key Identifier: 
                03:E4:E7:DA:0F:64:DB:13:1E:BD:85:AB:76:BC:29:CA:2F:A7:C7:4B
            X509v3 Subject Alternative Name: 
                DNS:localhost, DNS:test-httpd
    Signature Algorithm: sha256WithRSAEncryption
    Signature Value:
        07:59:06:b5:60:2d:55:ce:09:bd:f1:46:19:ef:e5:90:fa:b8:
        bf:da:08:ac:cd:96:9e:06:e4:b2:dc:1c:92:bf:b4:c0:ee:84:
        d5:39:92:43:84:bc:c7:c9:ea:6d:c0:90:f5:0c:d3:df:09:c2:
        c3:44:6b:5e:4d:fe:7f:6b:04:f9:58:9f:b3:e8:2f:ad:9a:09:
        91:b7:3c:dc:2b:ff:6c:db:9f:c8:63:aa:33:0e:3a:93:8e:2a:
        99:c4:c0:c0:5a:a1:d1:a2:79:ac:07:cf:f6:aa:f7:f3:7a:42:
        9a:99:47:7c:9e:a3:7a:0c:bd:59:d1:07:18:de:f5:64:71:53:
        83:99:38:bf:12:30:8d:89:49:8d:4b:c9:58:03:5e:6d:86:58:
        f3:32:a9:e0:24:18:0f:60:79:5a:54:8b:9e:be:9d:68:41:24:
        4b:2b:f8:d0:21:74:9e:bc:ea:f9:0c:c0:f9:56:e2:2c:ff:69:
        71:03:5c:76:d2:ea:f6:9c:05:4f:d2:28:7c:99:a1:5d:aa:ab:
        9b:31:82:ce:11:69:08:1c:5a:2c:86:92:4c:82:86:9a:ed:9f:
        f4:fe:c6:0b:df:1b:15:38:13:9c:3b:46:75:d8:ce:b0:ae:6e:
        64:3f:1b:b4:0b:1a:fb:bc:67:f4:aa:8e:e3:42:e1:3e:6e:e7:
        5f:98:64:2e
-----BEGIN CERTIFICATE-----
MIIEEjCCAvqgAwIBAgIBADANBgkqhkiG9w0BAQsFADB6MSMwIQYDVQQKDBpBcGFj
aGUgU29mdHdhcmUgRm91bmRhdGlvbjEfMB0GA1UECwwWSHR0cENvbXBvbmVudHMg
UHJvamVjdDEQMA4GA1UEAwwHVGVzdCBDQTEgMB4GCSqGSIb3DQEJARYRZGV2QGhj
LmFwYWNoZS5vcmcwIBcNMjQxMDIwMTkxNDAyWhgPMjEyNDA5MjYxOTE0MDJaMHwx
IzAhBgNVBAoMGkFwYWNoZSBTb2Z0d2FyZSBGb3VuZGF0aW9uMR8wHQYDVQQLDBZI
dHRwQ29tcG9uZW50cyBQcm9qZWN0MRIwEAYDVQQDDAlsb2NhbGhvc3QxIDAeBgkq
hkiG9w0BCQEWEWRldkBoYy5hcGFjaGUub3JnMIIBIjANBgkqhkiG9w0BAQEFAAOC
AQ8AMIIBCgKCAQEAnRIP0Ip+CuR2uAivP18PtExwJCJOj49V7K4xbOIFaN/FwE3p
pe3ZTnHt5zxRrAr+IZZ8DHsv+m9Pc2k4oCWnTNBp/KKNlMtPnscfo7JblF8gPGFN
c6acpHxyJSbuptDY8Enns+D1Td5uVIC5VIw3ndLArItDA42cyayR+TFPbekt1d65
xDTeZz0aTiVDXu6OAWfWskpJU/nTDJNdqR9S9yOTHXM61OHdK6LRZbHvaRIa/Gsk
fJZr0ichTjgEr+TR9k6yiqRZtsjFIdXA1th+WLJOOp5vgYoaDg5haRXLehkaN2I7
lrM7IBG3HqZjOSsMwit3ew0h70Imcc52SctoMwIDAQABo4GeMIGbMAkGA1UdEwQC
MAAwLAYJYIZIAYb4QgENBB8WHU9wZW5TU0wgR2VuZXJhdGVkIENlcnRpZmljYXRl
MB0GA1UdDgQWBBQ4GU+/wXFB/niRsAk5i63XBbnZgjAfBgNVHSMEGDAWgBQD5Ofa
D2TbEx69hat2vCnKL6fHSzAgBgNVHREEGTAXgglsb2NhbGhvc3SCCnRlc3QtaHR0
cGQwDQYJKoZIhvcNAQELBQADggEBAAdZBrVgLVXOCb3xRhnv5ZD6uL/aCKzNlp4G
5LLcHJK/tMDuhNU5kkOEvMfJ6m3AkPUM098JwsNEa15N/n9rBPlYn7PoL62aCZG3
PNwr/2zbn8hjqjMOOpOOKpnEwMBaodGieawHz/aq9/N6QpqZR3yeo3oMvVnRBxje
9WRxU4OZOL8SMI2JSY1LyVgDXm2GWPMyqeAkGA9geVpUi56+nWhBJEsr+NAhdJ68
6vkMwPlW4iz/aXEDXHbS6vacBU/SKHyZoV2qq5sxgs4RaQgcWiyGkkyChprtn/T+
xgvfGxU4E5w7RnXYzrCubmQ/G7QLGvu8Z/SqjuNC4T5u51+YZC4=
-----END CERTIFICATE-----
