Certificate:
    Data:
        Version: 3 (0x2)
        Serial Number: 1 (0x1)
    Signature Algorithm: sha256WithRSAEncryption
        Issuer: O=Apache Software Foundation, OU=HttpComponents Project, CN=Test CA/emailAddress=dev@hc.apache.org
        Validity
            Not Before: Jan 16 09:41:43 2017 GMT
            Not After : Dec 23 09:41:43 2116 GMT
        Subject: O=Apache Software Foundation, OU=HttpComponents Project, CN=test-httpd/emailAddress=dev@hc.apache.org
        Subject Public Key Info:
            Public Key Algorithm: rsaEncryption
                Public-Key: (2048 bit)
                Modulus:
                    00:da:55:cb:73:c3:42:cf:c1:4e:6e:d9:74:b8:f8:
                    1c:3f:1a:de:8d:72:3a:c4:62:f7:eb:e4:72:5b:9b:
                    9e:65:09:0e:f4:9b:f0:bd:29:d5:af:a9:d1:5f:82:
                    99:53:49:1f:7a:5c:6f:6c:0f:a2:48:68:c7:53:3e:
                    9b:9f:b2:c2:eb:8f:6b:38:c4:6a:75:52:55:60:9d:
                    60:40:9b:a4:79:c6:c7:ae:1c:6c:d9:c8:b6:5b:cb:
                    d4:af:78:45:0e:57:62:04:48:1d:d2:f3:c1:98:ac:
                    64:1f:ae:8d:30:78:ec:52:b3:03:6c:4b:1c:b1:87:
                    56:5e:a4:c3:3c:54:6b:05:22:95:30:c8:0c:d4:d4:
                    43:f0:eb:5b:58:29:5c:ce:98:97:cc:86:7a:8a:fd:
                    70:0e:c0:55:57:21:2e:4a:f5:5d:be:ba:6e:76:99:
                    6a:c7:9d:9f:5f:31:63:9c:ae:b5:03:75:6c:ec:d7:
                    e8:75:6b:e4:5d:23:30:e7:c8:b9:86:ec:9d:73:e8:
                    06:43:6a:66:51:57:84:bd:75:1b:c8:4d:6b:9c:11:
                    79:36:bf:dd:d4:a8:0d:ce:6b:c3:d7:7e:0e:f5:b0:
                    78:c1:80:96:d5:45:73:ca:86:8e:7e:0f:85:43:6e:
                    26:0d:20:3a:72:12:80:73:60:a2:90:a1:13:30:27:
                    d5:35
                Exponent: 65537 (0x10001)
        X509v3 extensions:
            X509v3 Basic Constraints: 
                CA:FALSE
            Netscape Comment: 
                OpenSSL Generated Certificate
            X509v3 Subject Key Identifier: 
                01:1E:40:80:D8:79:41:3D:8D:69:D6:E5:6C:DF:34:5D:8E:D7:07:D1
            X509v3 Authority Key Identifier: 
                keyid:03:E4:E7:DA:0F:64:DB:13:1E:BD:85:AB:76:BC:29:CA:2F:A7:C7:4B

            X509v3 Key Usage: 
                Digital Signature, Non Repudiation, Key Encipherment
            X509v3 Subject Alternative Name: 
                DNS:test-httpd, DNS:localhost
    Signature Algorithm: sha256WithRSAEncryption
         88:be:99:32:13:9b:3f:89:59:65:19:2a:0e:1e:7d:9f:29:c5:
         d6:7e:82:db:18:2c:cb:b9:71:ef:ac:8b:31:0e:7c:b1:f9:7a:
         b5:60:2f:08:63:e1:1e:f5:d0:fe:e4:b7:4e:98:de:1b:01:22:
         35:35:1c:ab:39:aa:25:d5:77:42:4c:eb:f6:d7:88:ba:14:27:
         05:ae:08:b8:80:69:3c:e1:c6:d3:d1:26:1e:76:c7:a9:b2:2b:
         c3:2e:f6:27:db:3d:6c:2e:5c:ac:b1:2b:06:b0:8c:0b:74:3a:
         72:dc:15:48:20:df:23:b1:2f:60:ba:e3:80:da:36:dc:aa:f6:
         87:4a:c9:82:74:40:4a:f9:cc:95:d9:2b:2b:20:c8:fd:b5:87:
         14:f6:13:1b:38:e6:7e:13:84:0b:c1:24:fe:dd:18:0c:ca:df:
         fb:71:5d:ea:aa:fb:ca:20:54:0b:7b:40:93:20:c5:4b:af:a6:
         89:86:2f:49:d7:83:0e:4e:47:be:5f:f9:34:f9:38:7f:25:18:
         05:0c:26:5e:aa:4c:c6:70:d2:27:5d:20:ef:8a:51:b6:86:8c:
         66:26:3d:36:8b:b0:b9:e0:cb:17:22:a5:b6:30:a0:c4:ae:9f:
         80:fb:7b:f1:55:f8:2f:61:b8:1e:f8:eb:2c:86:a3:53:6c:bd:
         c5:af:a2:1f
-----BEGIN CERTIFICATE-----
MIIEIDCCAwigAwIBAgIBATANBgkqhkiG9w0BAQsFADB6MSMwIQYDVQQKDBpBcGFj
aGUgU29mdHdhcmUgRm91bmRhdGlvbjEfMB0GA1UECwwWSHR0cENvbXBvbmVudHMg
UHJvamVjdDEQMA4GA1UEAwwHVGVzdCBDQTEgMB4GCSqGSIb3DQEJARYRZGV2QGhj
LmFwYWNoZS5vcmcwIBcNMTcwMTE2MDk0MTQzWhgPMjExNjEyMjMwOTQxNDNaMH0x
IzAhBgNVBAoMGkFwYWNoZSBTb2Z0d2FyZSBGb3VuZGF0aW9uMR8wHQYDVQQLDBZI
dHRwQ29tcG9uZW50cyBQcm9qZWN0MRMwEQYDVQQDDAp0ZXN0LWh0dHBkMSAwHgYJ
KoZIhvcNAQkBFhFkZXZAaGMuYXBhY2hlLm9yZzCCASIwDQYJKoZIhvcNAQEBBQAD
ggEPADCCAQoCggEBANpVy3PDQs/BTm7ZdLj4HD8a3o1yOsRi9+vkclubnmUJDvSb
8L0p1a+p0V+CmVNJH3pcb2wPokhox1M+m5+ywuuPazjEanVSVWCdYECbpHnGx64c
bNnItlvL1K94RQ5XYgRIHdLzwZisZB+ujTB47FKzA2xLHLGHVl6kwzxUawUilTDI
DNTUQ/DrW1gpXM6Yl8yGeor9cA7AVVchLkr1Xb66bnaZasedn18xY5yutQN1bOzX
6HVr5F0jMOfIuYbsnXPoBkNqZlFXhL11G8hNa5wReTa/3dSoDc5rw9d+DvWweMGA
ltVFc8qGjn4PhUNuJg0gOnISgHNgopChEzAn1TUCAwEAAaOBqzCBqDAJBgNVHRME
AjAAMCwGCWCGSAGG+EIBDQQfFh1PcGVuU1NMIEdlbmVyYXRlZCBDZXJ0aWZpY2F0
ZTAdBgNVHQ4EFgQUAR5AgNh5QT2NadblbN80XY7XB9EwHwYDVR0jBBgwFoAUA+Tn
2g9k2xMevYWrdrwpyi+nx0swCwYDVR0PBAQDAgXgMCAGA1UdEQQZMBeCCnRlc3Qt
aHR0cGSCCWxvY2FsaG9zdDANBgkqhkiG9w0BAQsFAAOCAQEAiL6ZMhObP4lZZRkq
Dh59nynF1n6C2xgsy7lx76yLMQ58sfl6tWAvCGPhHvXQ/uS3TpjeGwEiNTUcqzmq
JdV3Qkzr9teIuhQnBa4IuIBpPOHG09EmHnbHqbIrwy72J9s9bC5crLErBrCMC3Q6
ctwVSCDfI7EvYLrjgNo23Kr2h0rJgnRASvnMldkrKyDI/bWHFPYTGzjmfhOEC8Ek
/t0YDMrf+3Fd6qr7yiBUC3tAkyDFS6+miYYvSdeDDk5Hvl/5NPk4fyUYBQwmXqpM
xnDSJ10g74pRtoaMZiY9NouwueDLFyKltjCgxK6fgPt78VX4L2G4HvjrLIajU2y9
xa+iHw==
-----END CERTIFICATE-----
